ccopy_reg
_reconstructor
p0
(cgoogle.oauth2.credentials
Credentials
p1
c__builtin__
object
p2
Ntp3
Rp4
(dp5
S'_quota_project_id'
p6
NsS'_token_uri'
p7
Vhttps://oauth2.googleapis.com/token
p8
sS'_client_secret'
p9
VIkIiUv3gmtAcMJa3Sf5zlX2H
p10
sS'_id_token'
p11
NsS'token'
p12
Vya29.a0Adw1xeXXDmumdhytSkS8Rwp_Vdq1eNlVqhsPOzzG-r2Y7BDYBExj6hZeOIkdxHlGbmj2d4BlhdUL7LHndOLn3pRuR448QcmcJUKvXouk1bZMRONQ5OQYGBLC9ztyJHr9fw2mGbnmQpfPKSieoFCFoledjU0DWXEps5c
p13
sS'_refresh_token'
p14
V1//0fBDM1cGrU2YxCgYIARAAGA8SNwF-L9Ir12HnSeXbHyl-aCLwH1r4-j0DkzJ4vTAiTlYOis18ggWzSGgHP6zI9CAATzdHBVe1c7A
p15
sS'_scopes'
p16
(lp17
S'https://www.googleapis.com/auth/tasks.readonly'
p18
asS'_client_id'
p19
V340787959246-otp6btvo7f391og5biu3q5oa9tskh67u.apps.googleusercontent.com
p20
sS'expiry'
p21
cdatetime
datetime
p22
(S'\x07\xe4\x03\x02\x16\x1d\x13\r\x92\xa6'
p23
tp24
Rp25
sb.
